target datalayout = "e-m:e-p270:32:32-p271:32:32-p272:64:64-i64:64-i128:128-f80:128-n8:16:32:64-S128"
target triple = "x86_64-pc-linux-gnu"

; Function Attrs: nounwind uwtable
define internal void @SetInitialProfiles(ptr noundef %0, double noundef %1, double noundef %2) #0 {
  %4 = alloca ptr, align 8
  %5 = alloca double, align 8
  %6 = alloca double, align 8
  %7 = alloca i32, align 4
  %8 = alloca i32, align 4
  %9 = alloca double, align 8
  %10 = alloca double, align 8
  %11 = alloca double, align 8
  %12 = alloca double, align 8
  %13 = alloca ptr, align 8
  store ptr %0, ptr %4, align 8, !tbaa !4
  store double %1, ptr %5, align 8, !tbaa !20
  store double %2, ptr %6, align 8, !tbaa !20
  call void @llvm.lifetime.start.p0(i64 4, ptr %7) #6
  call void @llvm.lifetime.start.p0(i64 4, ptr %8) #6
  call void @llvm.lifetime.start.p0(i64 8, ptr %9) #6
  call void @llvm.lifetime.start.p0(i64 8, ptr %10) #6
  call void @llvm.lifetime.start.p0(i64 8, ptr %11) #6
  call void @llvm.lifetime.start.p0(i64 8, ptr %12) #6
  call void @llvm.lifetime.start.p0(i64 8, ptr %13) #6
  %14 = load ptr, ptr %4, align 8, !tbaa !4
  %15 = call ptr @N_VGetArrayPointer(ptr noundef %14)
  store ptr %15, ptr %13, align 8, !tbaa !33
  store i32 0, ptr %8, align 4, !tbaa !12
  br label %16

16:                                               ; preds = %88, %3
  %17 = load i32, ptr %8, align 4, !tbaa !12
  %18 = icmp slt i32 %17, 10
  br i1 %18, label %19, label %91

19:                                               ; preds = %16
  %20 = load i32, ptr %8, align 4, !tbaa !12
  %21 = sitofp i32 %20 to double
  %22 = load double, ptr %6, align 8, !tbaa !20
  %23 = call double @llvm.fmuladd.f64(double %21, double %22, double 3.000000e+01)
  store double %23, ptr %10, align 8, !tbaa !20
  %24 = load double, ptr %10, align 8, !tbaa !20
  %25 = fsub double %24, 4.000000e+01
  %26 = fmul double 1.000000e-01, %25
  %27 = load double, ptr %10, align 8, !tbaa !20
  %28 = fsub double %27, 4.000000e+01
  %29 = fmul double 1.000000e-01, %28
  %30 = fmul double %26, %29
  store double %30, ptr %12, align 8, !tbaa !20
  %31 = load double, ptr %12, align 8, !tbaa !20
  %32 = fsub double 1.000000e+00, %31
  %33 = load double, ptr %12, align 8, !tbaa !20
  %34 = load double, ptr %12, align 8, !tbaa !20
  %35 = fmul double %33, %34
  %36 = call double @llvm.fmuladd.f64(double 5.000000e-01, double %35, double %32)
  store double %36, ptr %12, align 8, !tbaa !20
  store i32 0, ptr %7, align 4, !tbaa !12
  br label %37

37:                                               ; preds = %84, %19
  %38 = load i32, ptr %7, align 4, !tbaa !12
  %39 = icmp slt i32 %38, 10
  br i1 %39, label %40, label %87

40:                                               ; preds = %37
  %41 = load i32, ptr %7, align 4, !tbaa !12
  %42 = sitofp i32 %41 to double
  %43 = load double, ptr %5, align 8, !tbaa !20
  %44 = call double @llvm.fmuladd.f64(double %42, double %43, double 0.000000e+00)
  store double %44, ptr %9, align 8, !tbaa !20
  %45 = load double, ptr %9, align 8, !tbaa !20
  %46 = fsub double %45, 1.000000e+01
  %47 = fmul double 1.000000e-01, %46
  %48 = load double, ptr %9, align 8, !tbaa !20
  %49 = fsub double %48, 1.000000e+01
  %50 = fmul double 1.000000e-01, %49
  %51 = fmul double %47, %50
  store double %51, ptr %11, align 8, !tbaa !20
  %52 = load double, ptr %11, align 8, !tbaa !20
  %53 = fsub double 1.000000e+00, %52
  %54 = load double, ptr %11, align 8, !tbaa !20
  %55 = load double, ptr %11, align 8, !tbaa !20
  %56 = fmul double %54, %55
  %57 = call double @llvm.fmuladd.f64(double 5.000000e-01, double %56, double %53)
  store double %57, ptr %11, align 8, !tbaa !20
  %58 = load double, ptr %11, align 8, !tbaa !20
  %59 = fmul double 1.000000e+06, %58
  %60 = load double, ptr %12, align 8, !tbaa !20
  %61 = fmul double %59, %60
  %62 = load ptr, ptr %13, align 8, !tbaa !33
  %63 = load i32, ptr %7, align 4, !tbaa !12
  %64 = mul nsw i32 %63, 2
  %65 = add nsw i32 0, %64
  %66 = load i32, ptr %8, align 4, !tbaa !12
  %67 = mul nsw i32 %66, 20
  %68 = add nsw i32 %65, %67
  %69 = sext i32 %68 to i64
  %70 = getelementptr inbounds double, ptr %62, i64 %69
  store double %61, ptr %70, align 8, !tbaa !20
  %71 = load double, ptr %11, align 8, !tbaa !20
  %72 = fmul double 1.000000e+12, %71
  %73 = load double, ptr %12, align 8, !tbaa !20
  %74 = fmul double %72, %73
  %75 = load ptr, ptr %13, align 8, !tbaa !33
  %76 = load i32, ptr %7, align 4, !tbaa !12
  %77 = mul nsw i32 %76, 2
  %78 = add nsw i32 1, %77
  %79 = load i32, ptr %8, align 4, !tbaa !12
  %80 = mul nsw i32 %79, 20
  %81 = add nsw i32 %78, %80
  %82 = sext i32 %81 to i64
  %83 = getelementptr inbounds double, ptr %75, i64 %82
  store double %74, ptr %83, align 8, !tbaa !20
  br label %84

84:                                               ; preds = %40
  %85 = load i32, ptr %7, align 4, !tbaa !12
  %86 = add nsw i32 %85, 1
  store i32 %86, ptr %7, align 4, !tbaa !12
  br label %37

87:                                               ; preds = %37
  br label %88

88:                                               ; preds = %87
  %89 = load i32, ptr %8, align 4, !tbaa !12
  %90 = add nsw i32 %89, 1
  store i32 %90, ptr %8, align 4, !tbaa !12
  br label %16

91:                                               ; preds = %16
  call void @llvm.lifetime.end.p0(i64 8, ptr %13) #6
  call void @llvm.lifetime.end.p0(i64 8, ptr %12) #6
  call void @llvm.lifetime.end.p0(i64 8, ptr %11) #6
  call void @llvm.lifetime.end.p0(i64 8, ptr %10) #6
  call void @llvm.lifetime.end.p0(i64 8, ptr %9) #6
  call void @llvm.lifetime.end.p0(i64 4, ptr %8) #6
  call void @llvm.lifetime.end.p0(i64 4, ptr %7) #6
  ret void
}